; Function Attrs: inlinehint nofree norecurse nosync nounwind memory(readwrite, inaccessiblemem: none) uwtable
define internal fastcc i32 @Vec_QuePop(ptr noundef captures(none) %0) unnamed_addr #7 {
  %2 = getelementptr inbounds nuw i8, ptr %0, i64 8
  %3 = load ptr, ptr %2, align 8, !tbaa !62
  %4 = getelementptr inbounds nuw i8, ptr %3, i64 4
  %5 = load i32, ptr %4, align 4, !tbaa !31
  %6 = getelementptr inbounds nuw i8, ptr %0, i64 16
  %7 = load ptr, ptr %6, align 8, !tbaa !110
  %8 = sext i32 %5 to i64
  %9 = getelementptr inbounds i32, ptr %7, i64 %8
  store i32 -1, ptr %9, align 4, !tbaa !31
  %10 = getelementptr inbounds nuw i8, ptr %0, i64 4
  %11 = load i32, ptr %10, align 4, !tbaa !59
  %12 = add nsw i32 %11, -1
  store i32 %12, ptr %10, align 4, !tbaa !59
  %13 = icmp eq i32 %12, 1
  br i1 %13, label %14, label %15

14:                                               ; preds = %1
  store i32 -1, ptr %4, align 4, !tbaa !31
  br label %84

15:                                               ; preds = %1
  %16 = sext i32 %12 to i64
  %17 = getelementptr inbounds i32, ptr %3, i64 %16
  %18 = load i32, ptr %17, align 4, !tbaa !31
  store i32 -1, ptr %17, align 4, !tbaa !31
  store i32 %18, ptr %4, align 4, !tbaa !31
  %19 = sext i32 %18 to i64
  %20 = getelementptr inbounds i32, ptr %7, i64 %19
  store i32 1, ptr %20, align 4, !tbaa !31
  %21 = getelementptr i8, ptr %0, i64 24
  %.val40.i = load ptr, ptr %21, align 8, !tbaa !133
  %.val40.val.i = load ptr, ptr %.val40.i, align 8, !tbaa !134
  %.not.i.i = icmp eq ptr %.val40.val.i, null
  br i1 %.not.i.i, label %Vec_QuePrio.exit.i, label %Vec_QuePrio.exit.thread.i

Vec_QuePrio.exit.i:                               ; preds = %15
  %22 = sitofp i32 %18 to float
  %23 = load i32, ptr %10, align 4, !tbaa !59
  %24 = icmp sgt i32 %23, 2
  br i1 %24, label %.lr.ph.split.us.i, label %Vec_QueMoveDown.exit

Vec_QuePrio.exit.thread.i:                        ; preds = %15
  %25 = getelementptr inbounds float, ptr %.val40.val.i, i64 %19
  %26 = load float, ptr %25, align 4, !tbaa !93
  %27 = load i32, ptr %10, align 4, !tbaa !59
  %28 = icmp sgt i32 %27, 2
  br i1 %28, label %.lr.ph.split.i, label %Vec_QueMoveDown.exit

.lr.ph.split.us.i:                                ; preds = %Vec_QuePrio.exit.i, %46
  %29 = phi i32 [ %51, %46 ], [ %23, %Vec_QuePrio.exit.i ]
  %.049.us.i = phi i32 [ %.0.us.i, %46 ], [ 2, %Vec_QuePrio.exit.i ]
  %.03548.us.i = phi i32 [ %.1.us.i, %46 ], [ 1, %Vec_QuePrio.exit.i ]
  %30 = or disjoint i32 %.049.us.i, 1
  %31 = icmp slt i32 %30, %29
  %32 = sext i32 %.049.us.i to i64
  br i1 %31, label %Vec_QuePrio.exit44.us.i, label %Vec_QuePrio.exit46.us.i

Vec_QuePrio.exit44.us.i:                          ; preds = %.lr.ph.split.us.i
  %33 = getelementptr inbounds i32, ptr %3, i64 %32
  %34 = load i32, ptr %33, align 4, !tbaa !31
  %35 = sitofp i32 %34 to float
  %36 = sext i32 %30 to i64
  %37 = getelementptr inbounds i32, ptr %3, i64 %36
  %38 = load i32, ptr %37, align 4, !tbaa !31
  %39 = sitofp i32 %38 to float
  %40 = fcmp olt float %35, %39
  br i1 %40, label %41, label %Vec_QuePrio.exit46.us.i

41:                                               ; preds = %Vec_QuePrio.exit44.us.i
  br label %Vec_QuePrio.exit46.us.i

Vec_QuePrio.exit46.us.i:                          ; preds = %41, %Vec_QuePrio.exit44.us.i, %.lr.ph.split.us.i
  %.pre-phi56.i = phi i64 [ %36, %41 ], [ %32, %Vec_QuePrio.exit44.us.i ], [ %32, %.lr.ph.split.us.i ]
  %.1.us.i = phi i32 [ %30, %41 ], [ %.049.us.i, %Vec_QuePrio.exit44.us.i ], [ %.049.us.i, %.lr.ph.split.us.i ]
  %42 = getelementptr inbounds i32, ptr %3, i64 %.pre-phi56.i
  %43 = load i32, ptr %42, align 4, !tbaa !31
  %44 = sitofp i32 %43 to float
  %45 = fcmp ult float %22, %44
  br i1 %45, label %46, label %Vec_QueMoveDown.exit

46:                                               ; preds = %Vec_QuePrio.exit46.us.i
  %47 = sext i32 %.03548.us.i to i64
  %48 = getelementptr inbounds i32, ptr %3, i64 %47
  store i32 %43, ptr %48, align 4, !tbaa !31
  %49 = sext i32 %43 to i64
  %50 = getelementptr inbounds i32, ptr %7, i64 %49
  store i32 %.03548.us.i, ptr %50, align 4, !tbaa !31
  %.0.us.i = shl i32 %.1.us.i, 1
  %51 = load i32, ptr %10, align 4, !tbaa !59
  %52 = icmp slt i32 %.0.us.i, %51
  br i1 %52, label %.lr.ph.split.us.i, label %Vec_QueMoveDown.exit, !llvm.loop !136

.lr.ph.split.i:                                   ; preds = %Vec_QuePrio.exit.thread.i, %76
  %53 = phi i32 [ %80, %76 ], [ %27, %Vec_QuePrio.exit.thread.i ]
  %.049.i = phi i32 [ %.0.i, %76 ], [ 2, %Vec_QuePrio.exit.thread.i ]
  %.03548.i = phi i32 [ %.1.i, %76 ], [ 1, %Vec_QuePrio.exit.thread.i ]
  %54 = or disjoint i32 %.049.i, 1
  %55 = icmp slt i32 %54, %53
  %56 = sext i32 %.049.i to i64
  br i1 %55, label %Vec_QuePrio.exit44.i, label %Vec_QuePrio.exit46.i

Vec_QuePrio.exit44.i:                             ; preds = %.lr.ph.split.i
  %57 = getelementptr inbounds i32, ptr %3, i64 %56
  %58 = load i32, ptr %57, align 4, !tbaa !31
  %59 = sext i32 %58 to i64
  %60 = getelementptr inbounds float, ptr %.val40.val.i, i64 %59
  %61 = load float, ptr %60, align 4, !tbaa !93
  %62 = sext i32 %54 to i64
  %63 = getelementptr inbounds i32, ptr %3, i64 %62
  %64 = load i32, ptr %63, align 4, !tbaa !31
  %65 = sext i32 %64 to i64
  %66 = getelementptr inbounds float, ptr %.val40.val.i, i64 %65
  %67 = load float, ptr %66, align 4, !tbaa !93
  %68 = fcmp olt float %61, %67
  br i1 %68, label %69, label %Vec_QuePrio.exit46.i

69:                                               ; preds = %Vec_QuePrio.exit44.i
  br label %Vec_QuePrio.exit46.i

Vec_QuePrio.exit46.i:                             ; preds = %69, %Vec_QuePrio.exit44.i, %.lr.ph.split.i
  %.pre-phi58.i = phi i64 [ %62, %69 ], [ %56, %Vec_QuePrio.exit44.i ], [ %56, %.lr.ph.split.i ]
  %.1.i = phi i32 [ %54, %69 ], [ %.049.i, %Vec_QuePrio.exit44.i ], [ %.049.i, %.lr.ph.split.i ]
  %70 = getelementptr inbounds i32, ptr %3, i64 %.pre-phi58.i
  %71 = load i32, ptr %70, align 4, !tbaa !31
  %72 = sext i32 %71 to i64
  %73 = getelementptr inbounds float, ptr %.val40.val.i, i64 %72
  %74 = load float, ptr %73, align 4, !tbaa !93
  %75 = fcmp ult float %26, %74
  br i1 %75, label %76, label %Vec_QueMoveDown.exit

76:                                               ; preds = %Vec_QuePrio.exit46.i
  %77 = sext i32 %.03548.i to i64
  %78 = getelementptr inbounds i32, ptr %3, i64 %77
  store i32 %71, ptr %78, align 4, !tbaa !31
  %79 = getelementptr inbounds i32, ptr %7, i64 %72
  store i32 %.03548.i, ptr %79, align 4, !tbaa !31
  %.0.i = shl i32 %.1.i, 1
  %80 = load i32, ptr %10, align 4, !tbaa !59
  %81 = icmp slt i32 %.0.i, %80
  br i1 %81, label %.lr.ph.split.i, label %Vec_QueMoveDown.exit, !llvm.loop !136

Vec_QueMoveDown.exit:                             ; preds = %Vec_QuePrio.exit46.i, %76, %Vec_QuePrio.exit46.us.i, %46, %Vec_QuePrio.exit.i, %Vec_QuePrio.exit.thread.i
  %.035.lcssa.i = phi i32 [ 1, %Vec_QuePrio.exit.thread.i ], [ 1, %Vec_QuePrio.exit.i ], [ %.1.us.i, %46 ], [ %.03548.us.i, %Vec_QuePrio.exit46.us.i ], [ %.1.i, %76 ], [ %.03548.i, %Vec_QuePrio.exit46.i ]
  %82 = sext i32 %.035.lcssa.i to i64
  %83 = getelementptr inbounds i32, ptr %3, i64 %82
  store i32 %18, ptr %83, align 4, !tbaa !31
  store i32 %.035.lcssa.i, ptr %20, align 4, !tbaa !31
  br label %84

84:                                               ; preds = %Vec_QueMoveDown.exit, %14
  ret i32 %5
}